target datalayout = "e-m:e-p270:32:32-p271:32:32-p272:64:64-i64:64-i128:128-f80:128-n8:16:32:64-S128"
target triple = "x86_64-pc-linux-gnu"

%struct.Vec_Int_t_ = type { i32, i32, ptr }

; Function Attrs: inlinehint nounwind uwtable
define internal void @Vec_IntShrink(ptr noundef %0, i32 noundef %1) #2 {
  %3 = alloca ptr, align 8
  %4 = alloca i32, align 4
  store ptr %0, ptr %3, align 8, !tbaa !8
  store i32 %1, ptr %4, align 4, !tbaa !12
  %5 = load i32, ptr %4, align 4, !tbaa !12
  %6 = load ptr, ptr %3, align 8, !tbaa !8
  %7 = getelementptr inbounds nuw %struct.Vec_Int_t_, ptr %6, i32 0, i32 1
  store i32 %5, ptr %7, align 4, !tbaa !43
  ret void
}

; Function Attrs: inlinehint nounwind uwtable
define internal void @Vec_IntWriteEntry(ptr noundef %0, i32 noundef %1, i32 noundef %2) #2 {
  %4 = alloca ptr, align 8
  %5 = alloca i32, align 4
  %6 = alloca i32, align 4
  store ptr %0, ptr %4, align 8, !tbaa !8
  store i32 %1, ptr %5, align 4, !tbaa !12
  store i32 %2, ptr %6, align 4, !tbaa !12
  %7 = load i32, ptr %6, align 4, !tbaa !12
  %8 = load ptr, ptr %4, align 8, !tbaa !8
  %9 = getelementptr inbounds nuw %struct.Vec_Int_t_, ptr %8, i32 0, i32 2
  %10 = load ptr, ptr %9, align 8, !tbaa !17
  %11 = load i32, ptr %5, align 4, !tbaa !12
  %12 = sext i32 %11 to i64
  %13 = getelementptr inbounds i32, ptr %10, i64 %12
  store i32 %7, ptr %13, align 4, !tbaa !12
  ret void
}

; Function Attrs: inlinehint nounwind uwtable
define internal i32 @Vec_IntEntry(ptr noundef %0, i32 noundef %1) #2 {
  %3 = alloca ptr, align 8
  %4 = alloca i32, align 4
  store ptr %0, ptr %3, align 8, !tbaa !8
  store i32 %1, ptr %4, align 4, !tbaa !12
  %5 = load ptr, ptr %3, align 8, !tbaa !8
  %6 = getelementptr inbounds nuw %struct.Vec_Int_t_, ptr %5, i32 0, i32 2
  %7 = load ptr, ptr %6, align 8, !tbaa !17
  %8 = load i32, ptr %4, align 4, !tbaa !12
  %9 = sext i32 %8 to i64
  %10 = getelementptr inbounds i32, ptr %7, i64 %9
  %11 = load i32, ptr %10, align 4, !tbaa !12
  ret i32 %11
}

; Function Attrs: inlinehint nounwind uwtable
define internal i32 @Vec_IntSize(ptr noundef %0) #2 {
  %2 = alloca ptr, align 8
  store ptr %0, ptr %2, align 8, !tbaa !8
  %3 = load ptr, ptr %2, align 8, !tbaa !8
  %4 = getelementptr inbounds nuw %struct.Vec_Int_t_, ptr %3, i32 0, i32 1
  %5 = load i32, ptr %4, align 4, !tbaa !43
  ret i32 %5
}

; Function Attrs: nounwind uwtable
define i32 @Gia_MiniAigSuperMerge(ptr noundef %0, i32 noundef %1) #0 {
  %3 = alloca ptr, align 8
  %4 = alloca i32, align 4
  %5 = alloca i32, align 4
  %6 = alloca i32, align 4
  %7 = alloca i32, align 4
  %8 = alloca i32, align 4
  %9 = alloca i32, align 4
  store ptr %0, ptr %3, align 8, !tbaa !8
  store i32 %1, ptr %4, align 4, !tbaa !12
  call void @llvm.lifetime.start.p0(i64 4, ptr %5) #13
  call void @llvm.lifetime.start.p0(i64 4, ptr %6) #13
  store i32 0, ptr %6, align 4, !tbaa !12
  call void @llvm.lifetime.start.p0(i64 4, ptr %7) #13
  call void @llvm.lifetime.start.p0(i64 4, ptr %8) #13
  store i32 -1, ptr %8, align 4, !tbaa !12
  call void @llvm.lifetime.start.p0(i64 4, ptr %9) #13
  store i32 0, ptr %9, align 4, !tbaa !12
  store i32 0, ptr %5, align 4, !tbaa !12
  br label %10

10:                                               ; preds = %50, %2
  %11 = load i32, ptr %5, align 4, !tbaa !12
  %12 = load ptr, ptr %3, align 8, !tbaa !8
  %13 = call i32 @Vec_IntSize(ptr noundef %12)
  %14 = icmp slt i32 %11, %13
  br i1 %14, label %15, label %19

15:                                               ; preds = %10
  %16 = load ptr, ptr %3, align 8, !tbaa !8
  %17 = load i32, ptr %5, align 4, !tbaa !12
  %18 = call i32 @Vec_IntEntry(ptr noundef %16, i32 noundef %17)
  store i32 %18, ptr %7, align 4, !tbaa !12
  br label %19

19:                                               ; preds = %15, %10
  %20 = phi i1 [ false, %10 ], [ true, %15 ]
  br i1 %20, label %21, label %53

21:                                               ; preds = %19
  %22 = load i32, ptr %8, align 4, !tbaa !12
  %23 = load i32, ptr %7, align 4, !tbaa !12
  %24 = icmp eq i32 %22, %23
  br i1 %24, label %25, label %39

25:                                               ; preds = %21
  %26 = load ptr, ptr %3, align 8, !tbaa !8
  %27 = load i32, ptr %6, align 4, !tbaa !12
  %28 = add nsw i32 %27, 1
  store i32 %28, ptr %6, align 4, !tbaa !12
  %29 = load i32, ptr %7, align 4, !tbaa !12
  %30 = load i32, ptr %4, align 4, !tbaa !12
  %31 = sdiv i32 %29, %30
  %32 = add nsw i32 %31, 1
  %33 = load i32, ptr %4, align 4, !tbaa !12
  %34 = mul nsw i32 %32, %33
  %35 = load i32, ptr %7, align 4, !tbaa !12
  %36 = load i32, ptr %4, align 4, !tbaa !12
  %37 = srem i32 %35, %36
  %38 = add nsw i32 %34, %37
  call void @Vec_IntWriteEntry(ptr noundef %26, i32 noundef %27, i32 noundef %38)
  store i32 -1, ptr %8, align 4, !tbaa !12
  store i32 1, ptr %9, align 4, !tbaa !12
  br label %49

39:                                               ; preds = %21
  %40 = load i32, ptr %8, align 4, !tbaa !12
  %41 = icmp ne i32 %40, -1
  br i1 %41, label %42, label %47

42:                                               ; preds = %39
  %43 = load ptr, ptr %3, align 8, !tbaa !8
  %44 = load i32, ptr %6, align 4, !tbaa !12
  %45 = add nsw i32 %44, 1
  store i32 %45, ptr %6, align 4, !tbaa !12
  %46 = load i32, ptr %8, align 4, !tbaa !12
  call void @Vec_IntWriteEntry(ptr noundef %43, i32 noundef %44, i32 noundef %46)
  br label %47

47:                                               ; preds = %42, %39
  %48 = load i32, ptr %7, align 4, !tbaa !12
  store i32 %48, ptr %8, align 4, !tbaa !12
  br label %49

49:                                               ; preds = %47, %25
  br label %50

50:                                               ; preds = %49
  %51 = load i32, ptr %5, align 4, !tbaa !12
  %52 = add nsw i32 %51, 1
  store i32 %52, ptr %5, align 4, !tbaa !12
  br label %10, !llvm.loop !161

53:                                               ; preds = %19
  %54 = load i32, ptr %8, align 4, !tbaa !12
  %55 = icmp ne i32 %54, -1
  br i1 %55, label %56, label %61

56:                                               ; preds = %53
  %57 = load ptr, ptr %3, align 8, !tbaa !8
  %58 = load i32, ptr %6, align 4, !tbaa !12
  %59 = add nsw i32 %58, 1
  store i32 %59, ptr %6, align 4, !tbaa !12
  %60 = load i32, ptr %8, align 4, !tbaa !12
  call void @Vec_IntWriteEntry(ptr noundef %57, i32 noundef %58, i32 noundef %60)
  br label %61

61:                                               ; preds = %56, %53
  %62 = load ptr, ptr %3, align 8, !tbaa !8
  %63 = load i32, ptr %6, align 4, !tbaa !12
  call void @Vec_IntShrink(ptr noundef %62, i32 noundef %63)
  %64 = load i32, ptr %9, align 4, !tbaa !12
  call void @llvm.lifetime.end.p0(i64 4, ptr %9) #13
  call void @llvm.lifetime.end.p0(i64 4, ptr %8) #13
  call void @llvm.lifetime.end.p0(i64 4, ptr %7) #13
  call void @llvm.lifetime.end.p0(i64 4, ptr %6) #13
  call void @llvm.lifetime.end.p0(i64 4, ptr %5) #13
  ret i32 %64
}