; Function Attrs: nofree norecurse nosync nounwind memory(readwrite, inaccessiblemem: none) uwtable
define range(i32 0, 2) i32 @Gia_MiniAigSuperMerge(ptr noundef captures(none) %0, i32 noundef %1) local_unnamed_addr #14 {
  %3 = getelementptr i8, ptr %0, i64 4
  %.val3337 = load i32, ptr %3, align 4, !tbaa !34
  %4 = icmp sgt i32 %.val3337, 0
  br i1 %4, label %.lr.ph, label %.critedge.thread

.lr.ph:                                           ; preds = %2
  %5 = getelementptr i8, ptr %0, i64 8
  %.val = load ptr, ptr %5, align 8, !tbaa !11
  br label %6

6:                                                ; preds = %.lr.ph, %19
  %indvars.iv = phi i64 [ 0, %.lr.ph ], [ %indvars.iv.next, %19 ]
  %.041 = phi i32 [ 0, %.lr.ph ], [ %.1, %19 ]
  %.02540 = phi i32 [ -1, %.lr.ph ], [ %.126, %19 ]
  %.02838 = phi i32 [ 0, %.lr.ph ], [ %.2, %19 ]
  %7 = getelementptr inbounds nuw i32, ptr %.val, i64 %indvars.iv
  %8 = load i32, ptr %7, align 4, !tbaa !10
  %9 = icmp eq i32 %.02540, %8
  br i1 %9, label %10, label %16

10:                                               ; preds = %6
  %11 = sdiv i32 %.02540, %1
  %12 = add nsw i32 %11, 1
  %13 = mul nsw i32 %12, %1
  %14 = srem i32 %.02540, %1
  %15 = add nsw i32 %13, %14
  br label %.sink.split

16:                                               ; preds = %6
  %.not32 = icmp eq i32 %.02540, -1
  br i1 %.not32, label %19, label %.sink.split

.sink.split:                                      ; preds = %16, %10
  %.02540.sink = phi i32 [ %15, %10 ], [ %.02540, %16 ]
  %.126.ph = phi i32 [ -1, %10 ], [ %8, %16 ]
  %.1.ph = phi i32 [ 1, %10 ], [ %.041, %16 ]
  %.2.ph = add nsw i32 %.02838, 1
  %17 = sext i32 %.02838 to i64
  %18 = getelementptr inbounds i32, ptr %.val, i64 %17
  store i32 %.02540.sink, ptr %18, align 4, !tbaa !10
  br label %19

19:                                               ; preds = %.sink.split, %16
  %.2 = phi i32 [ %.02838, %16 ], [ %.2.ph, %.sink.split ]
  %.126 = phi i32 [ %8, %16 ], [ %.126.ph, %.sink.split ]
  %.1 = phi i32 [ %.041, %16 ], [ %.1.ph, %.sink.split ]
  %indvars.iv.next = add nuw nsw i64 %indvars.iv, 1
  %.val33 = load i32, ptr %3, align 4, !tbaa !34
  %20 = sext i32 %.val33 to i64
  %21 = icmp slt i64 %indvars.iv.next, %20
  br i1 %21, label %6, label %.critedge, !llvm.loop !142

.critedge:                                        ; preds = %19
  %.not = icmp eq i32 %.126, -1
  br i1 %.not, label %.critedge.thread, label %22

22:                                               ; preds = %.critedge
  %23 = add nsw i32 %.2, 1
  %24 = getelementptr i8, ptr %0, i64 8
  %.val34 = load ptr, ptr %24, align 8, !tbaa !11
  %25 = sext i32 %.2 to i64
  %26 = getelementptr inbounds i32, ptr %.val34, i64 %25
  store i32 %.126, ptr %26, align 4, !tbaa !10
  br label %.critedge.thread

.critedge.thread:                                 ; preds = %2, %22, %.critedge
  %.0.lcssa49 = phi i32 [ %.1, %22 ], [ %.1, %.critedge ], [ 0, %2 ]
  %.3 = phi i32 [ %23, %22 ], [ %.2, %.critedge ], [ 0, %2 ]
  store i32 %.3, ptr %3, align 4, !tbaa !34
  ret i32 %.0.lcssa49
}